target datalayout = "e-m:e-p270:32:32-p271:32:32-p272:64:64-i64:64-i128:128-f80:128-n8:16:32:64-S128"
target triple = "x86_64-pc-linux-gnu"

%struct.Abc_Ntk_t_ = type { i32, i32, ptr, ptr, ptr, ptr, ptr, ptr, ptr, ptr, ptr, ptr, ptr, [11 x i32], i32, i32, i32, i32, ptr, i32, ptr, ptr, i32, i32, i32, double, i32, %struct.Vec_Int_t_, ptr, ptr, ptr, ptr, ptr, float, i32, ptr, ptr, ptr, ptr, ptr, ptr, ptr, ptr, ptr, ptr, ptr, ptr, ptr, ptr, ptr, ptr, ptr, ptr, ptr, ptr, ptr, ptr }
%struct.Vec_Int_t_ = type { i32, i32, ptr }
%struct.Abc_Obj_t_ = type { ptr, ptr, i32, i32, %struct.Vec_Int_t_, %struct.Vec_Int_t_, %union.anon, %union.anon.0 }
%union.anon = type { ptr }
%union.anon.0 = type { ptr }
%struct.stmm_table = type { ptr, ptr, i32, i32, i32, i32, double, ptr, ptr }
%struct.Vec_Ptr_t_ = type { i32, i32, ptr }

@.str.4 = private unnamed_addr constant [5 x i8] c"_inv\00", align 1
@.str.5 = private unnamed_addr constant [40 x i8] c"Total number of names collected = %5d.\0A\00", align 1
@.str.6 = private unnamed_addr constant [66 x i8] c"Total number of names assigned  = %5d. (Dir = %5d. Compl = %5d.)\0A\00", align 1

; Function Attrs: inlinehint nounwind uwtable
define internal ptr @Vec_PtrEntry(ptr noundef %0, i32 noundef %1) #3 {
  %3 = alloca ptr, align 8
  %4 = alloca i32, align 4
  store ptr %0, ptr %3, align 8, !tbaa !42
  store i32 %1, ptr %4, align 4, !tbaa !10
  %5 = load ptr, ptr %3, align 8, !tbaa !42
  %6 = getelementptr inbounds nuw %struct.Vec_Ptr_t_, ptr %5, i32 0, i32 2
  %7 = load ptr, ptr %6, align 8, !tbaa !45
  %8 = load i32, ptr %4, align 4, !tbaa !10
  %9 = sext i32 %8 to i64
  %10 = getelementptr inbounds ptr, ptr %7, i64 %9
  %11 = load ptr, ptr %10, align 8, !tbaa !46
  ret ptr %11
}

; Function Attrs: inlinehint nounwind uwtable
define internal ptr @Abc_ObjFanout0(ptr noundef %0) #3 {
  %2 = alloca ptr, align 8
  store ptr %0, ptr %2, align 8, !tbaa !29
  %3 = load ptr, ptr %2, align 8, !tbaa !29
  %4 = getelementptr inbounds nuw %struct.Abc_Obj_t_, ptr %3, i32 0, i32 0
  %5 = load ptr, ptr %4, align 8, !tbaa !40
  %6 = getelementptr inbounds nuw %struct.Abc_Ntk_t_, ptr %5, i32 0, i32 5
  %7 = load ptr, ptr %6, align 8, !tbaa !14
  %8 = getelementptr inbounds nuw %struct.Vec_Ptr_t_, ptr %7, i32 0, i32 2
  %9 = load ptr, ptr %8, align 8, !tbaa !45
  %10 = load ptr, ptr %2, align 8, !tbaa !29
  %11 = getelementptr inbounds nuw %struct.Abc_Obj_t_, ptr %10, i32 0, i32 5
  %12 = getelementptr inbounds nuw %struct.Vec_Int_t_, ptr %11, i32 0, i32 2
  %13 = load ptr, ptr %12, align 8, !tbaa !47
  %14 = getelementptr inbounds i32, ptr %13, i64 0
  %15 = load i32, ptr %14, align 4, !tbaa !10
  %16 = sext i32 %15 to i64
  %17 = getelementptr inbounds ptr, ptr %9, i64 %16
  %18 = load ptr, ptr %17, align 8, !tbaa !46
  ret ptr %18
}

; Function Attrs: inlinehint nounwind uwtable
define internal ptr @Abc_ObjNotCond(ptr noundef %0, i32 noundef %1) #3 {
  %3 = alloca ptr, align 8
  %4 = alloca i32, align 4
  store ptr %0, ptr %3, align 8, !tbaa !29
  store i32 %1, ptr %4, align 4, !tbaa !10
  %5 = load ptr, ptr %3, align 8, !tbaa !29
  %6 = ptrtoint ptr %5 to i64
  %7 = load i32, ptr %4, align 4, !tbaa !10
  %8 = icmp ne i32 %7, 0
  %9 = zext i1 %8 to i32
  %10 = sext i32 %9 to i64
  %11 = xor i64 %6, %10
  %12 = inttoptr i64 %11 to ptr
  ret ptr %12
}

; Function Attrs: inlinehint nounwind uwtable
define internal i32 @Abc_ObjIsComplement(ptr noundef %0) #3 {
  %2 = alloca ptr, align 8
  store ptr %0, ptr %2, align 8, !tbaa !29
  %3 = load ptr, ptr %2, align 8, !tbaa !29
  %4 = ptrtoint ptr %3 to i64
  %5 = and i64 %4, 1
  %6 = trunc i64 %5 to i32
  ret i32 %6
}

; Function Attrs: inlinehint nounwind uwtable
define internal ptr @Abc_ObjRegular(ptr noundef %0) #3 {
  %2 = alloca ptr, align 8
  store ptr %0, ptr %2, align 8, !tbaa !29
  %3 = load ptr, ptr %2, align 8, !tbaa !29
  %4 = ptrtoint ptr %3 to i64
  %5 = and i64 %4, -2
  %6 = inttoptr i64 %5 to ptr
  ret ptr %6
}

; Function Attrs: inlinehint nounwind uwtable
define internal i32 @Abc_ObjIsNode(ptr noundef %0) #3 {
  %2 = alloca ptr, align 8
  store ptr %0, ptr %2, align 8, !tbaa !29
  %3 = load ptr, ptr %2, align 8, !tbaa !29
  %4 = getelementptr inbounds nuw %struct.Abc_Obj_t_, ptr %3, i32 0, i32 3
  %5 = load i32, ptr %4, align 4
  %6 = and i32 %5, 15
  %7 = icmp eq i32 %6, 7
  %8 = zext i1 %7 to i32
  ret i32 %8
}

; Function Attrs: inlinehint nounwind uwtable
define internal ptr @Abc_NtkObj(ptr noundef %0, i32 noundef %1) #3 {
  %3 = alloca ptr, align 8
  %4 = alloca i32, align 4
  store ptr %0, ptr %3, align 8, !tbaa !3
  store i32 %1, ptr %4, align 4, !tbaa !10
  %5 = load ptr, ptr %3, align 8, !tbaa !3
  %6 = getelementptr inbounds nuw %struct.Abc_Ntk_t_, ptr %5, i32 0, i32 5
  %7 = load ptr, ptr %6, align 8, !tbaa !14
  %8 = load i32, ptr %4, align 4, !tbaa !10
  %9 = call ptr @Vec_PtrEntry(ptr noundef %7, i32 noundef %8)
  ret ptr %9
}

; Function Attrs: inlinehint nounwind uwtable
define internal i32 @Vec_PtrSize(ptr noundef %0) #3 {
  %2 = alloca ptr, align 8
  store ptr %0, ptr %2, align 8, !tbaa !42
  %3 = load ptr, ptr %2, align 8, !tbaa !42
  %4 = getelementptr inbounds nuw %struct.Vec_Ptr_t_, ptr %3, i32 0, i32 1
  %5 = load i32, ptr %4, align 4, !tbaa !43
  ret i32 %5
}

; Function Attrs: nounwind uwtable
define internal void @Abc_NtkDressTransferNames(ptr noundef %0, ptr noundef %1, i32 noundef %2) #0 {
  %4 = alloca ptr, align 8
  %5 = alloca ptr, align 8
  %6 = alloca i32, align 4
  %7 = alloca ptr, align 8
  %8 = alloca ptr, align 8
  %9 = alloca ptr, align 8
  %10 = alloca ptr, align 8
  %11 = alloca ptr, align 8
  %12 = alloca i32, align 4
  %13 = alloca i32, align 4
  %14 = alloca i32, align 4
  %15 = alloca i32, align 4
  store ptr %0, ptr %4, align 8, !tbaa !3
  store ptr %1, ptr %5, align 8, !tbaa !12
  store i32 %2, ptr %6, align 4, !tbaa !10
  call void @llvm.lifetime.start.p0(i64 8, ptr %7) #4
  call void @llvm.lifetime.start.p0(i64 8, ptr %8) #4
  call void @llvm.lifetime.start.p0(i64 8, ptr %9) #4
  call void @llvm.lifetime.start.p0(i64 8, ptr %10) #4
  call void @llvm.lifetime.start.p0(i64 8, ptr %11) #4
  call void @llvm.lifetime.start.p0(i64 4, ptr %12) #4
  call void @llvm.lifetime.start.p0(i64 4, ptr %13) #4
  store i32 0, ptr %13, align 4, !tbaa !10
  call void @llvm.lifetime.start.p0(i64 4, ptr %14) #4
  store i32 0, ptr %14, align 4, !tbaa !10
  call void @llvm.lifetime.start.p0(i64 4, ptr %15) #4
  %16 = load ptr, ptr %5, align 8, !tbaa !12
  %17 = getelementptr inbounds nuw %struct.stmm_table, ptr %16, i32 0, i32 3
  %18 = load i32, ptr %17, align 4, !tbaa !34
  store i32 %18, ptr %15, align 4, !tbaa !10
  store i32 0, ptr %12, align 4, !tbaa !10
  br label %19

19:                                               ; preds = %99, %3
  %20 = load i32, ptr %12, align 4, !tbaa !10
  %21 = load ptr, ptr %4, align 8, !tbaa !3
  %22 = getelementptr inbounds nuw %struct.Abc_Ntk_t_, ptr %21, i32 0, i32 5
  %23 = load ptr, ptr %22, align 8, !tbaa !14
  %24 = call i32 @Vec_PtrSize(ptr noundef %23)
  %25 = icmp slt i32 %20, %24
  br i1 %25, label %26, label %30

26:                                               ; preds = %19
  %27 = load ptr, ptr %4, align 8, !tbaa !3
  %28 = load i32, ptr %12, align 4, !tbaa !10
  %29 = call ptr @Abc_NtkObj(ptr noundef %27, i32 noundef %28)
  store ptr %29, ptr %8, align 8, !tbaa !29
  br label %30

30:                                               ; preds = %26, %19
  %31 = phi i1 [ false, %19 ], [ true, %26 ]
  br i1 %31, label %32, label %102

32:                                               ; preds = %30
  %33 = load ptr, ptr %8, align 8, !tbaa !29
  %34 = icmp eq ptr %33, null
  br i1 %34, label %39, label %35

35:                                               ; preds = %32
  %36 = load ptr, ptr %8, align 8, !tbaa !29
  %37 = call i32 @Abc_ObjIsNode(ptr noundef %36)
  %38 = icmp ne i32 %37, 0
  br i1 %38, label %40, label %39

39:                                               ; preds = %35, %32
  br label %98

40:                                               ; preds = %35
  %41 = load ptr, ptr %4, align 8, !tbaa !3
  %42 = getelementptr inbounds nuw %struct.Abc_Ntk_t_, ptr %41, i32 0, i32 4
  %43 = load ptr, ptr %42, align 8, !tbaa !37
  %44 = load ptr, ptr %8, align 8, !tbaa !29
  %45 = getelementptr inbounds nuw %struct.Abc_Obj_t_, ptr %44, i32 0, i32 2
  %46 = load i32, ptr %45, align 8, !tbaa !38
  %47 = call ptr @Nm_ManFindNameById(ptr noundef %43, i32 noundef %46)
  store ptr %47, ptr %11, align 8, !tbaa !8
  %48 = load ptr, ptr %11, align 8, !tbaa !8
  %49 = icmp ne ptr %48, null
  br i1 %49, label %50, label %51

50:                                               ; preds = %40
  br label %99

51:                                               ; preds = %40
  %52 = load ptr, ptr %8, align 8, !tbaa !29
  %53 = getelementptr inbounds nuw %struct.Abc_Obj_t_, ptr %52, i32 0, i32 7
  %54 = load ptr, ptr %53, align 8, !tbaa !31
  %55 = call ptr @Abc_ObjRegular(ptr noundef %54)
  store ptr %55, ptr %10, align 8, !tbaa !29
  %56 = load ptr, ptr %5, align 8, !tbaa !12
  %57 = load ptr, ptr %10, align 8, !tbaa !29
  %58 = call i32 @stmm_lookup(ptr noundef %56, ptr noundef %57, ptr noundef %9)
  %59 = icmp ne i32 %58, 0
  br i1 %59, label %61, label %60

60:                                               ; preds = %51
  br label %99

61:                                               ; preds = %51
  %62 = load ptr, ptr %9, align 8, !tbaa !29
  %63 = load ptr, ptr %8, align 8, !tbaa !29
  %64 = getelementptr inbounds nuw %struct.Abc_Obj_t_, ptr %63, i32 0, i32 7
  %65 = load ptr, ptr %64, align 8, !tbaa !31
  %66 = call i32 @Abc_ObjIsComplement(ptr noundef %65)
  %67 = call ptr @Abc_ObjNotCond(ptr noundef %62, i32 noundef %66)
  store ptr %67, ptr %9, align 8, !tbaa !29
  %68 = load ptr, ptr %9, align 8, !tbaa !29
  %69 = call ptr @Abc_ObjRegular(ptr noundef %68)
  %70 = call ptr @Abc_ObjFanout0(ptr noundef %69)
  store ptr %70, ptr %7, align 8, !tbaa !29
  %71 = load ptr, ptr %7, align 8, !tbaa !29
  %72 = getelementptr inbounds nuw %struct.Abc_Obj_t_, ptr %71, i32 0, i32 0
  %73 = load ptr, ptr %72, align 8, !tbaa !40
  %74 = getelementptr inbounds nuw %struct.Abc_Ntk_t_, ptr %73, i32 0, i32 4
  %75 = load ptr, ptr %74, align 8, !tbaa !37
  %76 = load ptr, ptr %7, align 8, !tbaa !29
  %77 = getelementptr inbounds nuw %struct.Abc_Obj_t_, ptr %76, i32 0, i32 2
  %78 = load i32, ptr %77, align 8, !tbaa !38
  %79 = call ptr @Nm_ManFindNameById(ptr noundef %75, i32 noundef %78)
  store ptr %79, ptr %11, align 8, !tbaa !8
  %80 = load ptr, ptr %9, align 8, !tbaa !29
  %81 = call i32 @Abc_ObjIsComplement(ptr noundef %80)
  %82 = icmp ne i32 %81, 0
  br i1 %82, label %83, label %89

83:                                               ; preds = %61
  %84 = load ptr, ptr %8, align 8, !tbaa !29
  %85 = load ptr, ptr %11, align 8, !tbaa !8
  %86 = call ptr @Abc_ObjAssignName(ptr noundef %84, ptr noundef %85, ptr noundef @.str.4)
  %87 = load i32, ptr %14, align 4, !tbaa !10
  %88 = add nsw i32 %87, 1
  store i32 %88, ptr %14, align 4, !tbaa !10
  br label %95

89:                                               ; preds = %61
  %90 = load ptr, ptr %8, align 8, !tbaa !29
  %91 = load ptr, ptr %11, align 8, !tbaa !8
  %92 = call ptr @Abc_ObjAssignName(ptr noundef %90, ptr noundef %91, ptr noundef null)
  %93 = load i32, ptr %13, align 4, !tbaa !10
  %94 = add nsw i32 %93, 1
  store i32 %94, ptr %13, align 4, !tbaa !10
  br label %95

95:                                               ; preds = %89, %83
  %96 = load ptr, ptr %5, align 8, !tbaa !12
  %97 = call i32 @stmm_delete(ptr noundef %96, ptr noundef %10, ptr noundef %9)
  br label %98

98:                                               ; preds = %95, %39
  br label %99

99:                                               ; preds = %98, %60, %50
  %100 = load i32, ptr %12, align 4, !tbaa !10
  %101 = add nsw i32 %100, 1
  store i32 %101, ptr %12, align 4, !tbaa !10
  br label %19, !llvm.loop !41

102:                                              ; preds = %30
  %103 = load i32, ptr %6, align 4, !tbaa !10
  %104 = icmp ne i32 %103, 0
  br i1 %104, label %105, label %114

105:                                              ; preds = %102
  %106 = load i32, ptr %15, align 4, !tbaa !10
  %107 = call i32 (ptr, ...) @printf(ptr noundef @.str.5, i32 noundef %106)
  %108 = load i32, ptr %13, align 4, !tbaa !10
  %109 = load i32, ptr %14, align 4, !tbaa !10
  %110 = add nsw i32 %108, %109
  %111 = load i32, ptr %13, align 4, !tbaa !10
  %112 = load i32, ptr %14, align 4, !tbaa !10
  %113 = call i32 (ptr, ...) @printf(ptr noundef @.str.6, i32 noundef %110, i32 noundef %111, i32 noundef %112)
  br label %114

114:                                              ; preds = %105, %102
  call void @llvm.lifetime.end.p0(i64 4, ptr %15) #4
  call void @llvm.lifetime.end.p0(i64 4, ptr %14) #4
  call void @llvm.lifetime.end.p0(i64 4, ptr %13) #4
  call void @llvm.lifetime.end.p0(i64 4, ptr %12) #4
  call void @llvm.lifetime.end.p0(i64 8, ptr %11) #4
  call void @llvm.lifetime.end.p0(i64 8, ptr %10) #4
  call void @llvm.lifetime.end.p0(i64 8, ptr %9) #4
  call void @llvm.lifetime.end.p0(i64 8, ptr %8) #4
  call void @llvm.lifetime.end.p0(i64 8, ptr %7) #4
  ret void
}