; Function Attrs: nounwind uwtable
define internal fastcc void @Abc_NtkDressTransferNames(ptr noundef readonly captures(none) %0, ptr noundef %1, i32 noundef %2) unnamed_addr #0 {
  %4 = alloca ptr, align 8
  %5 = alloca ptr, align 8
  call void @llvm.lifetime.start.p0(i64 8, ptr nonnull %4) #5
  call void @llvm.lifetime.start.p0(i64 8, ptr nonnull %5) #5
  %6 = getelementptr inbounds nuw i8, ptr %1, i64 20
  %7 = load i32, ptr %6, align 4, !tbaa !32
  %8 = getelementptr inbounds nuw i8, ptr %0, i64 32
  %9 = load ptr, ptr %8, align 8, !tbaa !7
  %10 = getelementptr i8, ptr %9, i64 4
  %.val42 = load i32, ptr %10, align 4, !tbaa !25
  %11 = icmp sgt i32 %.val42, 0
  br i1 %11, label %.lr.ph, label %.critedge

.lr.ph:                                           ; preds = %3
  %12 = getelementptr inbounds nuw i8, ptr %0, i64 24
  br label %13

13:                                               ; preds = %.lr.ph, %67
  %indvars.iv = phi i64 [ 0, %.lr.ph ], [ %indvars.iv.next, %67 ]
  %14 = phi ptr [ %9, %.lr.ph ], [ %68, %67 ]
  %.045 = phi i32 [ 0, %.lr.ph ], [ %.1, %67 ]
  %.02844 = phi i32 [ 0, %.lr.ph ], [ %.129, %67 ]
  %15 = getelementptr i8, ptr %14, i64 8
  %.val37.val = load ptr, ptr %15, align 8, !tbaa !27
  %16 = getelementptr inbounds nuw ptr, ptr %.val37.val, i64 %indvars.iv
  %17 = load ptr, ptr %16, align 8, !tbaa !28
  %18 = icmp eq ptr %17, null
  br i1 %18, label %67, label %19

19:                                               ; preds = %13
  %20 = getelementptr i8, ptr %17, i64 20
  %.val38 = load i32, ptr %20, align 4
  %21 = and i32 %.val38, 15
  %.not41 = icmp eq i32 %21, 7
  br i1 %.not41, label %22, label %67

22:                                               ; preds = %19
  %23 = load ptr, ptr %12, align 8, !tbaa !35
  %24 = getelementptr inbounds nuw i8, ptr %17, i64 16
  %25 = load i32, ptr %24, align 8, !tbaa !36
  %26 = call ptr @Nm_ManFindNameById(ptr noundef %23, i32 noundef %25) #5
  %.not34 = icmp eq ptr %26, null
  br i1 %.not34, label %27, label %67

27:                                               ; preds = %22
  %28 = getelementptr inbounds nuw i8, ptr %17, i64 64
  %29 = load ptr, ptr %28, align 8, !tbaa !29
  %30 = ptrtoint ptr %29 to i64
  %31 = and i64 %30, -2
  %32 = inttoptr i64 %31 to ptr
  store ptr %32, ptr %5, align 8, !tbaa !39
  %33 = call i32 @stmm_lookup(ptr noundef %1, ptr noundef %32, ptr noundef nonnull %4) #5
  %.not35 = icmp eq i32 %33, 0
  br i1 %.not35, label %67, label %34

34:                                               ; preds = %27
  %35 = load ptr, ptr %4, align 8, !tbaa !39
  %36 = load ptr, ptr %28, align 8, !tbaa !29
  %37 = ptrtoint ptr %36 to i64
  %38 = and i64 %37, 1
  %39 = ptrtoint ptr %35 to i64
  %40 = xor i64 %38, %39
  %41 = inttoptr i64 %40 to ptr
  store ptr %41, ptr %4, align 8, !tbaa !39
  %42 = and i64 %39, -2
  %43 = inttoptr i64 %42 to ptr
  %.val39 = load ptr, ptr %43, align 8, !tbaa !40
  %44 = getelementptr i8, ptr %43, i64 48
  %.val40 = load ptr, ptr %44, align 8, !tbaa !41
  %45 = getelementptr i8, ptr %.val39, i64 32
  %.val39.val = load ptr, ptr %45, align 8, !tbaa !7
  %.val40.val = load i32, ptr %.val40, align 4, !tbaa !3
  %46 = getelementptr i8, ptr %.val39.val, i64 8
  %.val39.val.val = load ptr, ptr %46, align 8, !tbaa !27
  %47 = sext i32 %.val40.val to i64
  %48 = getelementptr inbounds ptr, ptr %.val39.val.val, i64 %47
  %49 = load ptr, ptr %48, align 8, !tbaa !28
  %50 = load ptr, ptr %49, align 8, !tbaa !40
  %51 = getelementptr inbounds nuw i8, ptr %50, i64 24
  %52 = load ptr, ptr %51, align 8, !tbaa !35
  %53 = getelementptr inbounds nuw i8, ptr %49, i64 16
  %54 = load i32, ptr %53, align 8, !tbaa !36
  %55 = call ptr @Nm_ManFindNameById(ptr noundef %52, i32 noundef %54) #5
  %56 = load ptr, ptr %4, align 8, !tbaa !39
  %57 = ptrtoint ptr %56 to i64
  %58 = and i64 %57, 1
  %.not36 = icmp eq i64 %58, 0
  br i1 %.not36, label %62, label %59

59:                                               ; preds = %34
  %60 = call ptr @Abc_ObjAssignName(ptr noundef nonnull %17, ptr noundef %55, ptr noundef nonnull @.str.4) #5
  %61 = add nsw i32 %.045, 1
  br label %65

62:                                               ; preds = %34
  %63 = call ptr @Abc_ObjAssignName(ptr noundef nonnull %17, ptr noundef %55, ptr noundef null) #5
  %64 = add nsw i32 %.02844, 1
  br label %65

65:                                               ; preds = %62, %59
  %.230 = phi i32 [ %.02844, %59 ], [ %64, %62 ]
  %.2 = phi i32 [ %61, %59 ], [ %.045, %62 ]
  %66 = call i32 @stmm_delete(ptr noundef %1, ptr noundef nonnull %5, ptr noundef nonnull %4) #5
  br label %67

67:                                               ; preds = %65, %19, %13, %27, %22
  %.129 = phi i32 [ %.02844, %13 ], [ %.02844, %22 ], [ %.230, %65 ], [ %.02844, %27 ], [ %.02844, %19 ]
  %.1 = phi i32 [ %.045, %13 ], [ %.045, %22 ], [ %.2, %65 ], [ %.045, %27 ], [ %.045, %19 ]
  %indvars.iv.next = add nuw nsw i64 %indvars.iv, 1
  %68 = load ptr, ptr %8, align 8, !tbaa !7
  %69 = getelementptr i8, ptr %68, i64 4
  %.val = load i32, ptr %69, align 4, !tbaa !25
  %70 = sext i32 %.val to i64
  %71 = icmp slt i64 %indvars.iv.next, %70
  br i1 %71, label %13, label %.critedge, !llvm.loop !42

.critedge:                                        ; preds = %67, %3
  %.028.lcssa = phi i32 [ 0, %3 ], [ %.129, %67 ]
  %.0.lcssa = phi i32 [ 0, %3 ], [ %.1, %67 ]
  %.not = icmp eq i32 %2, 0
  br i1 %.not, label %76, label %72

72:                                               ; preds = %.critedge
  %73 = call i32 (ptr, ...) @printf(ptr noundef nonnull dereferenceable(1) @.str.5, i32 noundef %7)
  %74 = add nsw i32 %.0.lcssa, %.028.lcssa
  %75 = call i32 (ptr, ...) @printf(ptr noundef nonnull dereferenceable(1) @.str.6, i32 noundef %74, i32 noundef %.028.lcssa, i32 noundef %.0.lcssa)
  br label %76

76:                                               ; preds = %72, %.critedge
  call void @llvm.lifetime.end.p0(i64 8, ptr nonnull %5) #5
  call void @llvm.lifetime.end.p0(i64 8, ptr nonnull %4) #5
  ret void
}